; Function Attrs: mustprogress uwtable
define internal fastcc void @_ZNK11flatbuffers12_GLOBAL__N_116LuaBfbsGenerator25GenerateStructBuilderArgsEPKN10reflection6ObjectENSt7__cxx1112basic_stringIcSt11char_traitsIcESaIcEEE(ptr noalias nonnull align 8 %agg.result, ptr noundef nonnull align 8 dereferenceable(624) %this, ptr noundef %object, ptr noundef %prefix) unnamed_addr #0 align 2 personality ptr @__gxx_personality_v0 {
entry:
  %agg.tmp = alloca %"class.std::function.153", align 8
  tail call void @_ZNSt7__cxx1112basic_stringIcSt11char_traitsIcESaIcEEC1Ev(ptr noundef nonnull align 8 dereferenceable(32) %agg.result) #21
  %_M_manager.i.i = getelementptr inbounds i8, ptr %agg.tmp, i64 16
  call void @llvm.memset.p0.i64(ptr noundef nonnull align 8 dereferenceable(32) %agg.tmp, i8 0, i64 32, i1 false)
  %call.i.i2.i2 = invoke noalias noundef nonnull dereferenceable(24) ptr @_Znwm(i64 noundef 24) #19
          to label %invoke.cont unwind label %lpad

invoke.cont:                                      ; preds = %entry
  %_M_invoker.i = getelementptr inbounds i8, ptr %agg.tmp, i64 24
  store ptr %this, ptr %call.i.i2.i2, align 16
  %ref.tmp.sroa.2.0.call.i.i2.i2.sroa_idx = getelementptr inbounds i8, ptr %call.i.i2.i2, i64 8
  store ptr %agg.result, ptr %ref.tmp.sroa.2.0.call.i.i2.i2.sroa_idx, align 8
  %ref.tmp.sroa.3.0.call.i.i2.i2.sroa_idx = getelementptr inbounds i8, ptr %call.i.i2.i2, i64 16
  store ptr %prefix, ptr %ref.tmp.sroa.3.0.call.i.i2.i2.sroa_idx, align 16
  store ptr %call.i.i2.i2, ptr %agg.tmp, align 8
  store ptr @_ZNSt17_Function_handlerIFvPKN10reflection5FieldEEZNK11flatbuffers12_GLOBAL__N_116LuaBfbsGenerator25GenerateStructBuilderArgsEPKNS0_6ObjectENSt7__cxx1112basic_stringIcSt11char_traitsIcESaIcEEEEUlS3_E_E9_M_invokeERKSt9_Any_dataOS3_, ptr %_M_invoker.i, align 8
  store ptr @_ZNSt17_Function_handlerIFvPKN10reflection5FieldEEZNK11flatbuffers12_GLOBAL__N_116LuaBfbsGenerator25GenerateStructBuilderArgsEPKNS0_6ObjectENSt7__cxx1112basic_stringIcSt11char_traitsIcESaIcEEEEUlS3_E_E10_M_managerERSt9_Any_dataRKSJ_St18_Manager_operation, ptr %_M_manager.i.i, align 8
  invoke void @_ZNK11flatbuffers17BaseBfbsGenerator12ForAllFieldsEPKN10reflection6ObjectEbSt8functionIFvPKNS1_5FieldEEE(ptr noundef nonnull align 8 dereferenceable(48) %this, ptr noundef %object, i1 noundef zeroext false, ptr noundef nonnull %agg.tmp)
          to label %invoke.cont3 unwind label %lpad2

invoke.cont3:                                     ; preds = %invoke.cont
  %0 = load ptr, ptr %_M_manager.i.i, align 8
  %tobool.not.i.i = icmp eq ptr %0, null
  br i1 %tobool.not.i.i, label %_ZNSt8functionIFvPKN10reflection5FieldEEED2Ev.exit, label %if.then.i.i

if.then.i.i:                                      ; preds = %invoke.cont3
  %call.i.i = invoke noundef zeroext i1 %0(ptr noundef nonnull align 8 dereferenceable(16) %agg.tmp, ptr noundef nonnull align 8 dereferenceable(16) %agg.tmp, i32 noundef 3)
          to label %_ZNSt8functionIFvPKN10reflection5FieldEEED2Ev.exit unwind label %terminate.lpad.i.i

terminate.lpad.i.i:                               ; preds = %if.then.i.i
  %1 = landingpad { ptr, i32 }
          catch ptr null
  %2 = extractvalue { ptr, i32 } %1, 0
  call void @__clang_call_terminate(ptr %2) #22
  unreachable

_ZNSt8functionIFvPKN10reflection5FieldEEED2Ev.exit: ; preds = %invoke.cont3, %if.then.i.i
  ret void

lpad:                                             ; preds = %entry
  %3 = landingpad { ptr, i32 }
          cleanup
  br label %ehcleanup

lpad2:                                            ; preds = %invoke.cont
  %4 = landingpad { ptr, i32 }
          cleanup
  %5 = load ptr, ptr %_M_manager.i.i, align 8
  %tobool.not.i.i5 = icmp eq ptr %5, null
  br i1 %tobool.not.i.i5, label %ehcleanup, label %if.then.i.i6

if.then.i.i6:                                     ; preds = %lpad2
  %call.i.i7 = invoke noundef zeroext i1 %5(ptr noundef nonnull align 8 dereferenceable(16) %agg.tmp, ptr noundef nonnull align 8 dereferenceable(16) %agg.tmp, i32 noundef 3)
          to label %ehcleanup unwind label %terminate.lpad.i.i8

terminate.lpad.i.i8:                              ; preds = %if.then.i.i6
  %6 = landingpad { ptr, i32 }
          catch ptr null
  %7 = extractvalue { ptr, i32 } %6, 0
  call void @__clang_call_terminate(ptr %7) #22
  unreachable

ehcleanup:                                        ; preds = %if.then.i.i6, %lpad2, %lpad
  %.pn = phi { ptr, i32 } [ %3, %lpad ], [ %4, %lpad2 ], [ %4, %if.then.i.i6 ]
  call void @_ZNSt7__cxx1112basic_stringIcSt11char_traitsIcESaIcEED1Ev(ptr noundef nonnull align 8 dereferenceable(32) %agg.result) #21
  resume { ptr, i32 } %.pn
}